target datalayout = "e-m:e-p270:32:32-p271:32:32-p272:64:64-i64:64-i128:128-f80:128-n8:16:32:64-S128"
target triple = "x86_64-pc-linux-gnu"

%struct.WebPMuxImage = type { ptr, ptr, ptr, ptr, i32, i32, i32, i32, ptr }

; Function Attrs: nounwind uwtable
define hidden i32 @MuxHasAlpha(ptr noundef %0) #0 {
  %2 = alloca i32, align 4
  %3 = alloca ptr, align 8
  store ptr %0, ptr %3, align 8, !tbaa !44
  br label %4

4:                                                ; preds = %13, %1
  %5 = load ptr, ptr %3, align 8, !tbaa !44
  %6 = icmp ne ptr %5, null
  br i1 %6, label %7, label %17

7:                                                ; preds = %4
  %8 = load ptr, ptr %3, align 8, !tbaa !44
  %9 = getelementptr inbounds nuw %struct.WebPMuxImage, ptr %8, i32 0, i32 6
  %10 = load i32, ptr %9, align 8, !tbaa !60
  %11 = icmp ne i32 %10, 0
  br i1 %11, label %12, label %13

12:                                               ; preds = %7
  store i32 1, ptr %2, align 4
  br label %18

13:                                               ; preds = %7
  %14 = load ptr, ptr %3, align 8, !tbaa !44
  %15 = getelementptr inbounds nuw %struct.WebPMuxImage, ptr %14, i32 0, i32 8
  %16 = load ptr, ptr %15, align 8, !tbaa !46
  store ptr %16, ptr %3, align 8, !tbaa !44
  br label %4, !llvm.loop !61

17:                                               ; preds = %4
  store i32 0, ptr %2, align 4
  br label %18

18:                                               ; preds = %17, %12
  %19 = load i32, ptr %2, align 4
  ret i32 %19
}