; Function Attrs: nofree norecurse nosync nounwind memory(read, inaccessiblemem: none) uwtable
define hidden range(i32 0, 2) i32 @MuxHasAlpha(ptr noundef readonly captures(address_is_null) %0) local_unnamed_addr #8 {
  %.not5 = icmp eq ptr %0, null
  br i1 %.not5, label %._crit_edge, label %.lr.ph

.lr.ph:                                           ; preds = %1, %4
  %.06 = phi ptr [ %6, %4 ], [ %0, %1 ]
  %2 = getelementptr inbounds nuw i8, ptr %.06, i64 40
  %3 = load i32, ptr %2, align 8, !tbaa !49
  %.not4 = icmp eq i32 %3, 0
  br i1 %.not4, label %4, label %._crit_edge

4:                                                ; preds = %.lr.ph
  %5 = getelementptr inbounds nuw i8, ptr %.06, i64 48
  %6 = load ptr, ptr %5, align 8, !tbaa !39
  %.not = icmp eq ptr %6, null
  br i1 %.not, label %._crit_edge, label %.lr.ph, !llvm.loop !50

._crit_edge:                                      ; preds = %.lr.ph, %4, %1
  %.03 = phi i32 [ 0, %1 ], [ 0, %4 ], [ 1, %.lr.ph ]
  ret i32 %.03
}